target datalayout = "e-m:e-p270:32:32-p271:32:32-p272:64:64-i64:64-i128:128-f80:128-n8:16:32:64-S128"
target triple = "x86_64-pc-linux-gnu"

@_ZTIN4nori13NoriExceptionE = linkonce_odr hidden constant { ptr, ptr, ptr } { ptr getelementptr inbounds (ptr, ptr @_ZTVN10__cxxabiv120__si_class_type_infoE, i64 2), ptr @_ZTSN4nori13NoriExceptionE, ptr @_ZTISt13runtime_error }, comdat, align 8
@.str.3 = private unnamed_addr constant [55 x i8] c"Warp::squareToUniformDiskPdf() is not yet implemented!\00", align 1

; Function Attrs: mustprogress uwtable
define hidden noundef float @_ZN4nori4Warp22squareToUniformDiskPdfERKNS_6TPointIfLi2EEE(ptr noundef nonnull align 4 dereferenceable(8) %0) #4 align 2 personality ptr @__gxx_personality_v0 {
  %2 = alloca ptr, align 8
  %3 = alloca ptr, align 8
  %4 = alloca i32, align 4
  store ptr %0, ptr %2, align 8
  %5 = call ptr @__cxa_allocate_exception(i64 16) #3
  invoke void @_ZN4nori13NoriExceptionC2IJEEEPKcDpRKT_(ptr noundef nonnull align 8 dereferenceable(16) %5, ptr noundef @.str.3)
          to label %6 unwind label %7

6:                                                ; preds = %1
  call void @__cxa_throw(ptr %5, ptr @_ZTIN4nori13NoriExceptionE, ptr @_ZN4nori13NoriExceptionD2Ev) #8
  unreachable

7:                                                ; preds = %1
  %8 = landingpad { ptr, i32 }
          cleanup
  %9 = extractvalue { ptr, i32 } %8, 0
  store ptr %9, ptr %3, align 8
  %10 = extractvalue { ptr, i32 } %8, 1
  store i32 %10, ptr %4, align 4
  call void @__cxa_free_exception(ptr %5) #3
  br label %11

11:                                               ; preds = %7
  %12 = load ptr, ptr %3, align 8
  %13 = load i32, ptr %4, align 4
  %14 = insertvalue { ptr, i32 } poison, ptr %12, 0
  %15 = insertvalue { ptr, i32 } %14, i32 %13, 1
  resume { ptr, i32 } %15
}